; ModuleID = '31/1762.c'
source_filename = "31/1762.c"
target datalayout = "e-m:e-p270:32:32-p271:32:32-p272:64:64-i64:64-f80:128-n8:16:32:64-S128"
target triple = "x86_64-pc-linux-gnu"

%struct.student = type { [10 x i8], [20 x i8], i8, i32, [10 x i8], [20 x i8], %struct.student* }

@.str = private unnamed_addr constant [3 x i8] c"%s\00", align 1
@.str.1 = private unnamed_addr constant [16 x i8] c" %s %c %d %s %s\00", align 1
@.str.2 = private unnamed_addr constant [19 x i8] c"%s %s %c %d %s %s\0A\00", align 1

; Function Attrs: noinline nounwind uwtable
define dso_local i32 @main() #0 {
  %1 = alloca i32, align 4
  %2 = alloca %struct.student*, align 8
  %3 = alloca i32, align 4
  %4 = alloca i32, align 4
  %5 = alloca i32, align 4
  %6 = alloca %struct.student*, align 8
  store i32 0, i32* %1, align 4
  store i32 0, i32* %3, align 4
  store %struct.student* null, %struct.student** %2, align 8
  br label %7

7:                                                ; preds = %0, %35
  %8 = call noalias i8* @malloc(i64 100) #3
  %9 = bitcast i8* %8 to %struct.student*
  store %struct.student* %9, %struct.student** %6, align 8
  %10 = load %struct.student*, %struct.student** %6, align 8
  %11 = getelementptr inbounds %struct.student, %struct.student* %10, i32 0, i32 0
  %12 = getelementptr inbounds [10 x i8], [10 x i8]* %11, i64 0, i64 0
  %13 = call i32 (i8*, ...) @__isoc99_scanf(i8* getelementptr inbounds ([3 x i8], [3 x i8]* @.str, i64 0, i64 0), i8* %12)
  %14 = load %struct.student*, %struct.student** %6, align 8
  %15 = getelementptr inbounds %struct.student, %struct.student* %14, i32 0, i32 0
  %16 = getelementptr inbounds [10 x i8], [10 x i8]* %15, i64 0, i64 0
  %17 = load i8, i8* %16, align 8
  %18 = sext i8 %17 to i32
  %19 = icmp eq i32 %18, 101
  br i1 %19, label %20, label %35

20:                                               ; preds = %7
  %21 = load %struct.student*, %struct.student** %6, align 8
  %22 = getelementptr inbounds %struct.student, %struct.student* %21, i32 0, i32 0
  %23 = getelementptr inbounds [10 x i8], [10 x i8]* %22, i64 0, i64 1
  %24 = load i8, i8* %23, align 1
  %25 = sext i8 %24 to i32
  %26 = icmp eq i32 %25, 110
  br i1 %26, label %27, label %35

27:                                               ; preds = %20
  %28 = load %struct.student*, %struct.student** %6, align 8
  %29 = getelementptr inbounds %struct.student, %struct.student* %28, i32 0, i32 0
  %30 = getelementptr inbounds [10 x i8], [10 x i8]* %29, i64 0, i64 2
  %31 = load i8, i8* %30, align 2
  %32 = sext i8 %31 to i32
  %33 = icmp eq i32 %32, 100
  br i1 %33, label %34, label %35

34:                                               ; preds = %27
  br label %56

35:                                               ; preds = %27, %20, %7
  %36 = load %struct.student*, %struct.student** %6, align 8
  %37 = getelementptr inbounds %struct.student, %struct.student* %36, i32 0, i32 1
  %38 = getelementptr inbounds [20 x i8], [20 x i8]* %37, i64 0, i64 0
  %39 = load %struct.student*, %struct.student** %6, align 8
  %40 = getelementptr inbounds %struct.student, %struct.student* %39, i32 0, i32 2
  %41 = load %struct.student*, %struct.student** %6, align 8
  %42 = getelementptr inbounds %struct.student, %struct.student* %41, i32 0, i32 3
  %43 = load %struct.student*, %struct.student** %6, align 8
  %44 = getelementptr inbounds %struct.student, %struct.student* %43, i32 0, i32 4
  %45 = getelementptr inbounds [10 x i8], [10 x i8]* %44, i64 0, i64 0
  %46 = load %struct.student*, %struct.student** %6, align 8
  %47 = getelementptr inbounds %struct.student, %struct.student* %46, i32 0, i32 5
  %48 = getelementptr inbounds [20 x i8], [20 x i8]* %47, i64 0, i64 0
  %49 = call i32 (i8*, ...) @__isoc99_scanf(i8* getelementptr inbounds ([16 x i8], [16 x i8]* @.str.1, i64 0, i64 0), i8* %38, i8* %40, i32* %42, i8* %45, i8* %48)
  %50 = load i32, i32* %3, align 4
  %51 = add nsw i32 %50, 1
  store i32 %51, i32* %3, align 4
  %52 = load %struct.student*, %struct.student** %2, align 8
  %53 = load %struct.student*, %struct.student** %6, align 8
  %54 = getelementptr inbounds %struct.student, %struct.student* %53, i32 0, i32 6
  store %struct.student* %52, %struct.student** %54, align 8
  %55 = load %struct.student*, %struct.student** %6, align 8
  store %struct.student* %55, %struct.student** %2, align 8
  br label %7

56:                                               ; preds = %34
  %57 = load %struct.student*, %struct.student** %2, align 8
  store %struct.student* %57, %struct.student** %6, align 8
  br label %58

58:                                               ; preds = %61, %56
  %59 = load %struct.student*, %struct.student** %6, align 8
  %60 = icmp ne %struct.student* %59, null
  br i1 %60, label %61, label %85

61:                                               ; preds = %58
  %62 = load %struct.student*, %struct.student** %6, align 8
  %63 = getelementptr inbounds %struct.student, %struct.student* %62, i32 0, i32 0
  %64 = getelementptr inbounds [10 x i8], [10 x i8]* %63, i64 0, i64 0
  %65 = load %struct.student*, %struct.student** %6, align 8
  %66 = getelementptr inbounds %struct.student, %struct.student* %65, i32 0, i32 1
  %67 = getelementptr inbounds [20 x i8], [20 x i8]* %66, i64 0, i64 0
  %68 = load %struct.student*, %struct.student** %6, align 8
  %69 = getelementptr inbounds %struct.student, %struct.student* %68, i32 0, i32 2
  %70 = load i8, i8* %69, align 2
  %71 = sext i8 %70 to i32
  %72 = load %struct.student*, %struct.student** %6, align 8
  %73 = getelementptr inbounds %struct.student, %struct.student* %72, i32 0, i32 3
  %74 = load i32, i32* %73, align 8
  %75 = load %struct.student*, %struct.student** %6, align 8
  %76 = getelementptr inbounds %struct.student, %struct.student* %75, i32 0, i32 4
  %77 = getelementptr inbounds [10 x i8], [10 x i8]* %76, i64 0, i64 0
  %78 = load %struct.student*, %struct.student** %6, align 8
  %79 = getelementptr inbounds %struct.student, %struct.student* %78, i32 0, i32 5
  %80 = getelementptr inbounds [20 x i8], [20 x i8]* %79, i64 0, i64 0
  %81 = call i32 (i8*, ...) @printf(i8* getelementptr inbounds ([19 x i8], [19 x i8]* @.str.2, i64 0, i64 0), i8* %64, i8* %67, i32 %71, i32 %74, i8* %77, i8* %80)
  %82 = load %struct.student*, %struct.student** %6, align 8
  %83 = getelementptr inbounds %struct.student, %struct.student* %82, i32 0, i32 6
  %84 = load %struct.student*, %struct.student** %83, align 8
  store %struct.student* %84, %struct.student** %6, align 8
  br label %58

85:                                               ; preds = %58
  %86 = load i32, i32* %1, align 4
  ret i32 %86
}

; Function Attrs: nounwind
declare dso_local noalias i8* @malloc(i64) #1

declare dso_local i32 @__isoc99_scanf(i8*, ...) #2

declare dso_local i32 @printf(i8*, ...) #2


!llvm.module.flags = !{!0}
!llvm.ident = !{!1}

!0 = !{i32 1, !"wchar_size", i32 4}
!1 = !{!"clang version 10.0.0-4ubuntu1 "}
